target datalayout = "e-m:e-p270:32:32-p271:32:32-p272:64:64-i64:64-i128:128-f80:128-n8:16:32:64-S128"
target triple = "x86_64-pc-linux-gnu"

%struct.evp_cipher_ctx_st = type { ptr, ptr, ptr, i32, i32, i32, [16 x i8], [16 x i8], [32 x i8], i32, i32, i32, i32, [32 x i8] }
%struct.EVP_RC2_KEY = type { i32, %struct.rc2_key_st }
%struct.rc2_key_st = type { [64 x i16] }

; Function Attrs: nounwind uwtable
define internal i32 @rc2_ctrl(ptr noundef %0, i32 noundef %1, i32 noundef %2, ptr noundef %3) #0 {
  %5 = alloca i32, align 4
  %6 = alloca ptr, align 8
  %7 = alloca i32, align 4
  %8 = alloca i32, align 4
  %9 = alloca ptr, align 8
  %10 = alloca ptr, align 8
  %11 = alloca i32, align 4
  store ptr %0, ptr %6, align 8, !tbaa !6
  store i32 %1, ptr %7, align 4, !tbaa !13
  store i32 %2, ptr %8, align 4, !tbaa !13
  store ptr %3, ptr %9, align 8, !tbaa !18
  call void @llvm.lifetime.start.p0(i64 8, ptr %10) #3
  %12 = load ptr, ptr %6, align 8, !tbaa !6
  %13 = getelementptr inbounds nuw %struct.evp_cipher_ctx_st, ptr %12, i32 0, i32 2
  %14 = load ptr, ptr %13, align 8, !tbaa !15
  store ptr %14, ptr %10, align 8, !tbaa !18
  %15 = load i32, ptr %7, align 4, !tbaa !13
  switch i32 %15, label %26 [
    i32 0, label %16
    i32 3, label %22
  ]

16:                                               ; preds = %4
  %17 = load ptr, ptr %6, align 8, !tbaa !6
  %18 = call i32 @EVP_CIPHER_CTX_key_length(ptr noundef %17)
  %19 = mul i32 %18, 8
  %20 = load ptr, ptr %10, align 8, !tbaa !18
  %21 = getelementptr inbounds nuw %struct.EVP_RC2_KEY, ptr %20, i32 0, i32 0
  store i32 %19, ptr %21, align 4, !tbaa !19
  store i32 1, ptr %5, align 4
  store i32 1, ptr %11, align 4
  br label %27

22:                                               ; preds = %4
  %23 = load i32, ptr %8, align 4, !tbaa !13
  %24 = load ptr, ptr %10, align 8, !tbaa !18
  %25 = getelementptr inbounds nuw %struct.EVP_RC2_KEY, ptr %24, i32 0, i32 0
  store i32 %23, ptr %25, align 4, !tbaa !19
  store i32 1, ptr %5, align 4
  store i32 1, ptr %11, align 4
  br label %27

26:                                               ; preds = %4
  store i32 -1, ptr %5, align 4
  store i32 1, ptr %11, align 4
  br label %27

27:                                               ; preds = %26, %22, %16
  call void @llvm.lifetime.end.p0(i64 8, ptr %10) #3
  %28 = load i32, ptr %5, align 4
  ret i32 %28
}