; Function Attrs: nounwind uwtable
define internal range(i32 -1, 2) i32 @rc2_ctrl(ptr noundef %0, i32 noundef %1, i32 noundef %2, ptr readnone captures(none) %3) #1 {
  %5 = getelementptr inbounds nuw i8, ptr %0, i64 16
  %6 = load ptr, ptr %5, align 8, !tbaa !6
  switch i32 %1, label %10 [
    i32 0, label %7
    i32 3, label %.sink.split
  ]

7:                                                ; preds = %4
  %8 = tail call i32 @EVP_CIPHER_CTX_key_length(ptr noundef nonnull %0) #7
  %9 = shl i32 %8, 3
  br label %.sink.split

.sink.split:                                      ; preds = %4, %7
  %.sink = phi i32 [ %9, %7 ], [ %2, %4 ]
  store i32 %.sink, ptr %6, align 4, !tbaa !13
  br label %10

10:                                               ; preds = %.sink.split, %4
  %.0 = phi i32 [ -1, %4 ], [ 1, %.sink.split ]
  ret i32 %.0
}